target datalayout = "e-m:e-p270:32:32-p271:32:32-p272:64:64-i64:64-i128:128-f80:128-n8:16:32:64-S128"
target triple = "x86_64-pc-linux-gnu"

%struct.wl_list = type { ptr, ptr }
%struct.SDL_Rect = type { i32, i32, i32, i32 }
%struct.SDL_AtomicInt = type { i32 }
%struct.SDL_WindowData = type { ptr, ptr, ptr, ptr, ptr, ptr, ptr, %union.anon, i32, i32, i32, i32, ptr, ptr, ptr, ptr, ptr, ptr, ptr, ptr, ptr, ptr, ptr, ptr, ptr, ptr, %struct.SDL_AtomicInt, ptr, i32, ptr, double, ptr, i32, i32, i32, i32, %struct.anon.14, %struct.anon.15, %struct.anon.16, %struct.anon.17, %struct.anon.18, %struct.anon.19, %struct.anon.20, i32, i32, i32, i64, i32, i32, i8, i8, i8, i8, i8, i8, i8, i8, i8, i8, i8, i8, i8, i8, i32, %struct.wl_list }
%union.anon = type { %struct.anon.10 }
%struct.anon.10 = type { ptr, %union.anon.11, i8 }
%union.anon.11 = type { %struct.anon.13 }
%struct.anon.13 = type { ptr, ptr }
%struct.anon.14 = type { double, double }
%struct.anon.15 = type { i32, i32, i32, i32 }
%struct.anon.16 = type { i32, i32, i32, i32 }
%struct.anon.17 = type { i32, i32 }
%struct.anon.18 = type { i32, i32 }
%struct.anon.19 = type { i32, i32 }
%struct.anon.20 = type { i32, i32, i8 }
%struct.SDL_Window = type { i32, ptr, ptr, i32, i32, i32, i32, i32, i32, i32, i32, float, float, i32, i32, i64, i64, float, i8, i8, i32, i32, %struct.SDL_Rect, %struct.SDL_Rect, %struct.SDL_Rect, i8, i8, i8, %struct.SDL_DisplayMode, %struct.SDL_DisplayMode, %struct.SDL_HDROutputProperties, float, ptr, i8, i8, i8, i8, i8, i8, i8, i8, i8, i32, i32, i32, i32, %struct.SDL_Rect, i32, i8, %struct.SDL_Rect, i32, %struct.SDL_Rect, ptr, ptr, i32, float, i32, i32, ptr, ptr, ptr, ptr, ptr, ptr, ptr, ptr, ptr }
%struct.SDL_DisplayMode = type { i32, i32, i32, i32, float, float, i32, i32, ptr }
%struct.SDL_HDROutputProperties = type { float, float }

; Function Attrs: nounwind uwtable
define internal void @Wayland_GetScaledMouseRect(ptr noundef %0, ptr noundef %1) #0 {
  %3 = alloca ptr, align 8
  %4 = alloca ptr, align 8
  %5 = alloca ptr, align 8
  store ptr %0, ptr %3, align 8
  store ptr %1, ptr %4, align 8
  call void @llvm.lifetime.start.p0(i64 8, ptr %5) #10
  %6 = load ptr, ptr %3, align 8
  %7 = getelementptr inbounds nuw %struct.SDL_Window, ptr %6, i32 0, i32 59
  %8 = load ptr, ptr %7, align 8
  store ptr %8, ptr %5, align 8
  %9 = load ptr, ptr %3, align 8
  %10 = getelementptr inbounds nuw %struct.SDL_Window, ptr %9, i32 0, i32 51
  %11 = getelementptr inbounds nuw %struct.SDL_Rect, ptr %10, i32 0, i32 0
  %12 = load i32, ptr %11, align 8
  %13 = sitofp i32 %12 to double
  %14 = load ptr, ptr %5, align 8
  %15 = getelementptr inbounds nuw %struct.SDL_WindowData, ptr %14, i32 0, i32 36
  %16 = getelementptr inbounds nuw %struct.anon.14, ptr %15, i32 0, i32 0
  %17 = load double, ptr %16, align 8
  %18 = fdiv double %13, %17
  %19 = call double @SDL_floor_REAL(double noundef %18)
  %20 = fptosi double %19 to i32
  %21 = load ptr, ptr %4, align 8
  %22 = getelementptr inbounds nuw %struct.SDL_Rect, ptr %21, i32 0, i32 0
  store i32 %20, ptr %22, align 4
  %23 = load ptr, ptr %3, align 8
  %24 = getelementptr inbounds nuw %struct.SDL_Window, ptr %23, i32 0, i32 51
  %25 = getelementptr inbounds nuw %struct.SDL_Rect, ptr %24, i32 0, i32 1
  %26 = load i32, ptr %25, align 4
  %27 = sitofp i32 %26 to double
  %28 = load ptr, ptr %5, align 8
  %29 = getelementptr inbounds nuw %struct.SDL_WindowData, ptr %28, i32 0, i32 36
  %30 = getelementptr inbounds nuw %struct.anon.14, ptr %29, i32 0, i32 1
  %31 = load double, ptr %30, align 8
  %32 = fdiv double %27, %31
  %33 = call double @SDL_floor_REAL(double noundef %32)
  %34 = fptosi double %33 to i32
  %35 = load ptr, ptr %4, align 8
  %36 = getelementptr inbounds nuw %struct.SDL_Rect, ptr %35, i32 0, i32 1
  store i32 %34, ptr %36, align 4
  %37 = load ptr, ptr %3, align 8
  %38 = getelementptr inbounds nuw %struct.SDL_Window, ptr %37, i32 0, i32 51
  %39 = getelementptr inbounds nuw %struct.SDL_Rect, ptr %38, i32 0, i32 2
  %40 = load i32, ptr %39, align 8
  %41 = sitofp i32 %40 to double
  %42 = load ptr, ptr %5, align 8
  %43 = getelementptr inbounds nuw %struct.SDL_WindowData, ptr %42, i32 0, i32 36
  %44 = getelementptr inbounds nuw %struct.anon.14, ptr %43, i32 0, i32 0
  %45 = load double, ptr %44, align 8
  %46 = fdiv double %41, %45
  %47 = call double @SDL_ceil_REAL(double noundef %46)
  %48 = fptosi double %47 to i32
  %49 = load ptr, ptr %4, align 8
  %50 = getelementptr inbounds nuw %struct.SDL_Rect, ptr %49, i32 0, i32 2
  store i32 %48, ptr %50, align 4
  %51 = load ptr, ptr %3, align 8
  %52 = getelementptr inbounds nuw %struct.SDL_Window, ptr %51, i32 0, i32 51
  %53 = getelementptr inbounds nuw %struct.SDL_Rect, ptr %52, i32 0, i32 3
  %54 = load i32, ptr %53, align 4
  %55 = sitofp i32 %54 to double
  %56 = load ptr, ptr %5, align 8
  %57 = getelementptr inbounds nuw %struct.SDL_WindowData, ptr %56, i32 0, i32 36
  %58 = getelementptr inbounds nuw %struct.anon.14, ptr %57, i32 0, i32 1
  %59 = load double, ptr %58, align 8
  %60 = fdiv double %55, %59
  %61 = call double @SDL_ceil_REAL(double noundef %60)
  %62 = fptosi double %61 to i32
  %63 = load ptr, ptr %4, align 8
  %64 = getelementptr inbounds nuw %struct.SDL_Rect, ptr %63, i32 0, i32 3
  store i32 %62, ptr %64, align 4
  call void @llvm.lifetime.end.p0(i64 8, ptr %5) #10
  ret void
}