; Function Attrs: nounwind uwtable
define internal fastcc void @Wayland_GetScaledMouseRect(ptr noundef readonly captures(none) %0, ptr noundef nonnull writeonly captures(none) initializes((0, 16)) %1) unnamed_addr #0 {
  %3 = getelementptr inbounds nuw i8, ptr %0, i64 392
  %4 = load ptr, ptr %3, align 8
  %5 = getelementptr inbounds nuw i8, ptr %0, i64 336
  %6 = load i32, ptr %5, align 8
  %7 = sitofp i32 %6 to double
  %8 = getelementptr inbounds nuw i8, ptr %4, i64 280
  %9 = load double, ptr %8, align 8
  %10 = fdiv double %7, %9
  %11 = tail call double @SDL_floor_REAL(double noundef %10) #12
  %12 = fptosi double %11 to i32
  store i32 %12, ptr %1, align 4
  %13 = getelementptr inbounds nuw i8, ptr %0, i64 340
  %14 = load i32, ptr %13, align 4
  %15 = sitofp i32 %14 to double
  %16 = getelementptr inbounds nuw i8, ptr %4, i64 288
  %17 = load double, ptr %16, align 8
  %18 = fdiv double %15, %17
  %19 = tail call double @SDL_floor_REAL(double noundef %18) #12
  %20 = fptosi double %19 to i32
  %21 = getelementptr inbounds nuw i8, ptr %1, i64 4
  store i32 %20, ptr %21, align 4
  %22 = getelementptr inbounds nuw i8, ptr %0, i64 344
  %23 = load i32, ptr %22, align 8
  %24 = sitofp i32 %23 to double
  %25 = load double, ptr %8, align 8
  %26 = fdiv double %24, %25
  %27 = tail call double @SDL_ceil_REAL(double noundef %26) #12
  %28 = fptosi double %27 to i32
  %29 = getelementptr inbounds nuw i8, ptr %1, i64 8
  store i32 %28, ptr %29, align 4
  %30 = getelementptr inbounds nuw i8, ptr %0, i64 348
  %31 = load i32, ptr %30, align 4
  %32 = sitofp i32 %31 to double
  %33 = load double, ptr %16, align 8
  %34 = fdiv double %32, %33
  %35 = tail call double @SDL_ceil_REAL(double noundef %34) #12
  %36 = fptosi double %35 to i32
  %37 = getelementptr inbounds nuw i8, ptr %1, i64 12
  store i32 %36, ptr %37, align 4
  ret void
}